target datalayout = "e-m:e-p270:32:32-p271:32:32-p272:64:64-i64:64-i128:128-f80:128-n8:16:32:64-S128"
target triple = "x86_64-pc-linux-gnu"

; Function Attrs: mustprogress nounwind uwtable
define noundef ptr @_ZNK7glslang13TIntermediate12addUnaryNodeENS_9TOperatorEPNS_12TIntermTypedERKNS_10TSourceLocERKNS_5TTypeE(ptr noundef nonnull align 8 dereferenceable(2024) %0, i32 noundef %1, ptr noundef %2, ptr noundef nonnull align 8 dereferenceable(24) %3, ptr noundef nonnull align 8 dereferenceable(152) %4) #0 align 2 {
  %6 = alloca ptr, align 8
  %7 = alloca i32, align 4
  %8 = alloca ptr, align 8
  %9 = alloca ptr, align 8
  %10 = alloca ptr, align 8
  %11 = alloca ptr, align 8
  store ptr %0, ptr %6, align 8
  store i32 %1, ptr %7, align 4
  store ptr %2, ptr %8, align 8
  store ptr %3, ptr %9, align 8
  store ptr %4, ptr %10, align 8
  %12 = load ptr, ptr %6, align 8
  %13 = load i32, ptr %7, align 4
  %14 = load ptr, ptr %8, align 8
  %15 = load ptr, ptr %9, align 8
  %16 = call noundef ptr @_ZNK7glslang13TIntermediate12addUnaryNodeENS_9TOperatorEPNS_12TIntermTypedERKNS_10TSourceLocE(ptr noundef nonnull align 8 dereferenceable(2024) %12, i32 noundef %13, ptr noundef %14, ptr noundef nonnull align 8 dereferenceable(24) %15)
  store ptr %16, ptr %11, align 8
  %17 = load ptr, ptr %11, align 8
  %18 = load ptr, ptr %10, align 8
  %19 = load ptr, ptr %17, align 8
  %20 = getelementptr inbounds ptr, ptr %19, i64 29
  %21 = load ptr, ptr %20, align 8
  call void %21(ptr noundef nonnull align 8 dereferenceable(184) %17, ptr noundef nonnull align 8 dereferenceable(152) %18)
  %22 = load ptr, ptr %11, align 8
  ret ptr %22
}

; Function Attrs: mustprogress nounwind uwtable
define noundef ptr @_ZN7glslang13TIntermediate22addBuiltInFunctionCallERKNS_10TSourceLocENS_9TOperatorEbP11TIntermNodeRKNS_5TTypeE(ptr noundef nonnull align 8 dereferenceable(2024) %0, ptr noundef nonnull align 8 dereferenceable(24) %1, i32 noundef %2, i1 noundef zeroext %3, ptr noundef %4, ptr noundef nonnull align 8 dereferenceable(152) %5) #0 align 2 {
  %7 = alloca ptr, align 8
  %8 = alloca ptr, align 8
  %9 = alloca ptr, align 8
  %10 = alloca i32, align 4
  %11 = alloca i8, align 1
  %12 = alloca ptr, align 8
  %13 = alloca ptr, align 8
  %14 = alloca ptr, align 8
  %15 = alloca ptr, align 8
  %16 = alloca ptr, align 8
  store ptr %0, ptr %8, align 8
  store ptr %1, ptr %9, align 8
  store i32 %2, ptr %10, align 4
  %17 = zext i1 %3 to i8
  store i8 %17, ptr %11, align 1
  store ptr %4, ptr %12, align 8
  store ptr %5, ptr %13, align 8
  %18 = load ptr, ptr %8, align 8
  %19 = load i8, ptr %11, align 1
  %20 = trunc i8 %19 to i1
  br i1 %20, label %21, label %64

21:                                               ; preds = %6
  %22 = load ptr, ptr %12, align 8
  %23 = load ptr, ptr %22, align 8
  %24 = getelementptr inbounds ptr, ptr %23, i64 3
  %25 = load ptr, ptr %24, align 8
  %26 = call noundef ptr %25(ptr noundef nonnull align 8 dereferenceable(32) %22)
  store ptr %26, ptr %14, align 8
  %27 = load ptr, ptr %14, align 8
  %28 = icmp eq ptr %27, null
  br i1 %28, label %29, label %30

29:                                               ; preds = %21
  store ptr null, ptr %7, align 8
  br label %71

30:                                               ; preds = %21
  %31 = load ptr, ptr %14, align 8
  %32 = load ptr, ptr %31, align 8
  %33 = getelementptr inbounds ptr, ptr %32, i64 5
  %34 = load ptr, ptr %33, align 8
  %35 = call noundef ptr %34(ptr noundef nonnull align 8 dereferenceable(32) %31)
  %36 = icmp ne ptr %35, null
  br i1 %36, label %37, label %54

37:                                               ; preds = %30
  %38 = load ptr, ptr %14, align 8
  %39 = load ptr, ptr %38, align 8
  %40 = getelementptr inbounds ptr, ptr %39, i64 5
  %41 = load ptr, ptr %40, align 8
  %42 = call noundef ptr %41(ptr noundef nonnull align 8 dereferenceable(32) %38)
  %43 = load i32, ptr %10, align 4
  %44 = load ptr, ptr %13, align 8
  %45 = load ptr, ptr %42, align 8
  %46 = getelementptr inbounds ptr, ptr %45, i64 49
  %47 = load ptr, ptr %46, align 8
  %48 = call noundef ptr %47(ptr noundef nonnull align 8 dereferenceable(201) %42, i32 noundef %43, ptr noundef nonnull align 8 dereferenceable(152) %44)
  store ptr %48, ptr %15, align 8
  %49 = load ptr, ptr %15, align 8
  %50 = icmp ne ptr %49, null
  br i1 %50, label %51, label %53

51:                                               ; preds = %37
  %52 = load ptr, ptr %15, align 8
  store ptr %52, ptr %7, align 8
  br label %71

53:                                               ; preds = %37
  br label %54

54:                                               ; preds = %53, %30
  %55 = load i32, ptr %10, align 4
  %56 = load ptr, ptr %14, align 8
  %57 = load ptr, ptr %14, align 8
  %58 = load ptr, ptr %57, align 8
  %59 = getelementptr inbounds ptr, ptr %58, i64 0
  %60 = load ptr, ptr %59, align 8
  %61 = call noundef nonnull align 8 dereferenceable(24) ptr %60(ptr noundef nonnull align 8 dereferenceable(32) %57)
  %62 = load ptr, ptr %13, align 8
  %63 = call noundef ptr @_ZNK7glslang13TIntermediate12addUnaryNodeENS_9TOperatorEPNS_12TIntermTypedERKNS_10TSourceLocERKNS_5TTypeE(ptr noundef nonnull align 8 dereferenceable(2024) %18, i32 noundef %55, ptr noundef %56, ptr noundef nonnull align 8 dereferenceable(24) %61, ptr noundef nonnull align 8 dereferenceable(152) %62)
  store ptr %63, ptr %7, align 8
  br label %71

64:                                               ; preds = %6
  %65 = load ptr, ptr %12, align 8
  %66 = load i32, ptr %10, align 4
  %67 = load ptr, ptr %13, align 8
  %68 = load ptr, ptr %9, align 8
  %69 = call noundef ptr @_ZN7glslang13TIntermediate20setAggregateOperatorEP11TIntermNodeNS_9TOperatorERKNS_5TTypeERKNS_10TSourceLocE(ptr noundef nonnull align 8 dereferenceable(2024) %18, ptr noundef %65, i32 noundef %66, ptr noundef nonnull align 8 dereferenceable(152) %67, ptr noundef nonnull align 8 dereferenceable(24) %68)
  store ptr %69, ptr %16, align 8
  %70 = load ptr, ptr %16, align 8
  store ptr %70, ptr %7, align 8
  br label %71

71:                                               ; preds = %64, %54, %51, %29
  %72 = load ptr, ptr %7, align 8
  ret ptr %72
}