; Function Attrs: mustprogress nounwind uwtable
define noundef ptr @_ZN7glslang13TIntermediate22addBuiltInFunctionCallERKNS_10TSourceLocENS_9TOperatorEbP11TIntermNodeRKNS_5TTypeE(ptr noundef nonnull align 8 dereferenceable(2024) %0, ptr noundef nonnull align 8 dereferenceable(24) %1, i32 noundef %2, i1 noundef zeroext %3, ptr noundef %4, ptr noundef nonnull align 8 dereferenceable(152) %5) local_unnamed_addr #0 align 2 {
  br i1 %3, label %7, label %35

7:                                                ; preds = %6
  %8 = load ptr, ptr %4, align 8
  %9 = getelementptr inbounds i8, ptr %8, i64 24
  %10 = load ptr, ptr %9, align 8
  %11 = tail call noundef ptr %10(ptr noundef nonnull align 8 dereferenceable(32) %4) #17
  %12 = icmp eq ptr %11, null
  br i1 %12, label %37, label %13

13:                                               ; preds = %7
  %14 = load ptr, ptr %11, align 8
  %15 = getelementptr inbounds i8, ptr %14, i64 40
  %16 = load ptr, ptr %15, align 8
  %17 = tail call noundef ptr %16(ptr noundef nonnull align 8 dereferenceable(32) %11) #17
  %.not = icmp eq ptr %17, null
  br i1 %.not, label %27, label %18

18:                                               ; preds = %13
  %19 = load ptr, ptr %11, align 8
  %20 = getelementptr inbounds i8, ptr %19, i64 40
  %21 = load ptr, ptr %20, align 8
  %22 = tail call noundef ptr %21(ptr noundef nonnull align 8 dereferenceable(32) %11) #17
  %23 = load ptr, ptr %22, align 8
  %24 = getelementptr inbounds i8, ptr %23, i64 392
  %25 = load ptr, ptr %24, align 8
  %26 = tail call noundef ptr %25(ptr noundef nonnull align 8 dereferenceable(201) %22, i32 noundef %2, ptr noundef nonnull align 8 dereferenceable(152) %5) #17
  %.not21 = icmp eq ptr %26, null
  br i1 %.not21, label %27, label %37

27:                                               ; preds = %18, %13
  %28 = load ptr, ptr %11, align 8
  %29 = load ptr, ptr %28, align 8
  %30 = tail call noundef nonnull align 8 dereferenceable(24) ptr %29(ptr noundef nonnull align 8 dereferenceable(32) %11) #17
  %31 = tail call noundef ptr @_ZNK7glslang13TIntermediate12addUnaryNodeENS_9TOperatorEPNS_12TIntermTypedERKNS_10TSourceLocE(ptr nonnull readnone align 8 poison, i32 noundef %2, ptr noundef nonnull %11, ptr noundef nonnull align 8 dereferenceable(24) %30)
  %32 = load ptr, ptr %31, align 8
  %33 = getelementptr inbounds i8, ptr %32, i64 232
  %34 = load ptr, ptr %33, align 8
  tail call void %34(ptr noundef nonnull align 8 dereferenceable(184) %31, ptr noundef nonnull align 8 dereferenceable(152) %5) #17
  br label %37

35:                                               ; preds = %6
  %36 = tail call noundef ptr @_ZN7glslang13TIntermediate20setAggregateOperatorEP11TIntermNodeNS_9TOperatorERKNS_5TTypeERKNS_10TSourceLocE(ptr noundef nonnull align 8 dereferenceable(2024) %0, ptr noundef %4, i32 noundef %2, ptr noundef nonnull align 8 dereferenceable(152) %5, ptr noundef nonnull align 8 dereferenceable(24) %1)
  br label %37

37:                                               ; preds = %18, %7, %35, %27
  %.0 = phi ptr [ %31, %27 ], [ %36, %35 ], [ null, %7 ], [ %26, %18 ]
  ret ptr %.0
}